target datalayout = "e-m:e-p270:32:32-p271:32:32-p272:64:64-i64:64-i128:128-f80:128-n8:16:32:64-S128"
target triple = "x86_64-pc-linux-gnu"

%struct._packet_info = type { ptr, ptr, i32, i32, %struct.nstime_t, %struct.nstime_t, %struct.nstime_t, i8, ptr, ptr, ptr, ptr, %struct._address, %struct._address, %struct._address, %struct._address, %struct._address, %struct._address, i32, ptr, i8, [3 x i8], %struct.anon, i32, i32, i32, i32, ptr, i8, ptr, ptr, i16, i16, i32, i32, i16, i32, i32, ptr, ptr, ptr, i8, i8, i16, i16, i16, i32, i16, i16, ptr, ptr, ptr, ptr, ptr, i32, i32 }
%struct.nstime_t = type { i64, i32 }
%struct._address = type { i32, i32, ptr, ptr }
%struct.anon = type { i8, [3 x i8] }

@hf_sip_service_priority = internal global i32 0, align 4
@.str.1025 = private unnamed_addr constant [17 x i8] c"service-priority\00", align 1

; Function Attrs: null_pointer_is_valid sspstrong uwtable
define internal void @dissect_sip_generic_parameters(ptr noundef %0, ptr noundef %1, ptr noundef %2, i32 noundef %3, i32 noundef %4) #0 {
  %6 = alloca ptr, align 8
  %7 = alloca ptr, align 8
  %8 = alloca ptr, align 8
  %9 = alloca i32, align 4
  %10 = alloca i32, align 4
  %11 = alloca i32, align 4
  %12 = alloca i32, align 4
  %13 = alloca i32, align 4
  %14 = alloca i32, align 4
  %15 = alloca ptr, align 8
  store ptr %0, ptr %6, align 8
  store ptr %1, ptr %7, align 8
  store ptr %2, ptr %8, align 8
  store i32 %3, ptr %9, align 4
  store i32 %4, ptr %10, align 4
  call void @llvm.lifetime.start.p0(i64 4, ptr %11) #18
  call void @llvm.lifetime.start.p0(i64 4, ptr %12) #18
  call void @llvm.lifetime.start.p0(i64 4, ptr %13) #18
  call void @llvm.lifetime.start.p0(i64 4, ptr %14) #18
  br label %16

16:                                               ; preds = %89, %5
  %17 = load i32, ptr %9, align 4
  %18 = load i32, ptr %10, align 4
  %19 = icmp slt i32 %17, %18
  br i1 %19, label %20, label %92

20:                                               ; preds = %16
  call void @llvm.lifetime.start.p0(i64 8, ptr %15) #18
  store ptr null, ptr %15, align 8
  %21 = load ptr, ptr %6, align 8
  %22 = load i32, ptr %9, align 4
  %23 = load i32, ptr %10, align 4
  %24 = load i32, ptr %9, align 4
  %25 = sub i32 %23, %24
  %26 = call i32 @tvb_skip_wsp(ptr noundef %21, i32 noundef %22, i32 noundef %25)
  store i32 %26, ptr %9, align 4
  %27 = load ptr, ptr %6, align 8
  %28 = load i32, ptr %9, align 4
  %29 = load i32, ptr %10, align 4
  %30 = load i32, ptr %9, align 4
  %31 = sub i32 %29, %30
  %32 = call i32 @tvb_find_uint8(ptr noundef %27, i32 noundef %28, i32 noundef %31, i8 noundef zeroext 59)
  store i32 %32, ptr %11, align 4
  %33 = load i32, ptr %11, align 4
  %34 = icmp eq i32 %33, -1
  br i1 %34, label %35, label %37

35:                                               ; preds = %20
  %36 = load i32, ptr %10, align 4
  store i32 %36, ptr %11, align 4
  br label %37

37:                                               ; preds = %35, %20
  %38 = load i32, ptr %11, align 4
  %39 = load i32, ptr %9, align 4
  %40 = sub i32 %38, %39
  store i32 %40, ptr %14, align 4
  %41 = load ptr, ptr %6, align 8
  %42 = load i32, ptr %9, align 4
  %43 = add i32 %42, 1
  %44 = load i32, ptr %14, align 4
  %45 = call i32 @tvb_find_uint8(ptr noundef %41, i32 noundef %43, i32 noundef %44, i8 noundef zeroext 61)
  store i32 %45, ptr %13, align 4
  %46 = load i32, ptr %13, align 4
  %47 = icmp ne i32 %46, -1
  br i1 %47, label %48, label %83

48:                                               ; preds = %37
  %49 = load i32, ptr %13, align 4
  store i32 %49, ptr %12, align 4
  %50 = load ptr, ptr %8, align 8
  %51 = getelementptr inbounds nuw %struct._packet_info, ptr %50, i32 0, i32 51
  %52 = load ptr, ptr %51, align 8
  %53 = load ptr, ptr %6, align 8
  %54 = load i32, ptr %9, align 4
  %55 = load i32, ptr %12, align 4
  %56 = load i32, ptr %9, align 4
  %57 = sub i32 %55, %56
  %58 = call ptr @tvb_get_string_enc(ptr noundef %52, ptr noundef %53, i32 noundef %54, i32 noundef %57, i32 noundef 2)
  store ptr %58, ptr %15, align 8
  %59 = load ptr, ptr %15, align 8
  %60 = icmp ne ptr %59, null
  br i1 %60, label %61, label %76

61:                                               ; preds = %48
  %62 = load ptr, ptr %15, align 8
  %63 = call i32 @g_ascii_strcasecmp(ptr noundef %62, ptr noundef @.str.1025)
  %64 = icmp eq i32 %63, 0
  br i1 %64, label %65, label %76

65:                                               ; preds = %61
  %66 = load ptr, ptr %7, align 8
  %67 = load i32, ptr @hf_sip_service_priority, align 4
  %68 = load ptr, ptr %6, align 8
  %69 = load i32, ptr %13, align 4
  %70 = add i32 %69, 1
  %71 = load i32, ptr %11, align 4
  %72 = load i32, ptr %13, align 4
  %73 = sub i32 %71, %72
  %74 = sub i32 %73, 1
  %75 = call ptr @proto_tree_add_item(ptr noundef %66, i32 noundef %67, ptr noundef %68, i32 noundef %70, i32 noundef %74, i32 noundef 2)
  br label %82

76:                                               ; preds = %61, %48
  %77 = load ptr, ptr %7, align 8
  %78 = load ptr, ptr %6, align 8
  %79 = load i32, ptr %9, align 4
  %80 = load i32, ptr %14, align 4
  %81 = call ptr @proto_tree_add_format_text(ptr noundef %77, ptr noundef %78, i32 noundef %79, i32 noundef %80)
  br label %82

82:                                               ; preds = %76, %65
  br label %89

83:                                               ; preds = %37
  %84 = load ptr, ptr %7, align 8
  %85 = load ptr, ptr %6, align 8
  %86 = load i32, ptr %9, align 4
  %87 = load i32, ptr %14, align 4
  %88 = call ptr @proto_tree_add_format_text(ptr noundef %84, ptr noundef %85, i32 noundef %86, i32 noundef %87)
  br label %89

89:                                               ; preds = %83, %82
  %90 = load i32, ptr %11, align 4
  %91 = add i32 %90, 1
  store i32 %91, ptr %9, align 4
  call void @llvm.lifetime.end.p0(i64 8, ptr %15) #18
  br label %16, !llvm.loop !43

92:                                               ; preds = %16
  call void @llvm.lifetime.end.p0(i64 4, ptr %14) #18
  call void @llvm.lifetime.end.p0(i64 4, ptr %13) #18
  call void @llvm.lifetime.end.p0(i64 4, ptr %12) #18
  call void @llvm.lifetime.end.p0(i64 4, ptr %11) #18
  ret void
}