; Function Attrs: null_pointer_is_valid sspstrong uwtable
define internal fastcc void @dissect_sip_generic_parameters(ptr noundef %0, ptr noundef %1, ptr noundef readonly captures(none) %2, i32 noundef range(i32 1, 0) %3, i32 noundef %4) unnamed_addr #0 {
  %6 = icmp slt i32 %3, %4
  br i1 %6, label %.lr.ph, label %._crit_edge

.lr.ph:                                           ; preds = %5
  %7 = getelementptr inbounds nuw i8, ptr %2, i64 408
  br label %8

8:                                                ; preds = %.lr.ph, %34
  %.045 = phi i32 [ %3, %.lr.ph ], [ %35, %34 ]
  %9 = sub i32 %4, %.045
  %10 = tail call i32 @tvb_skip_wsp(ptr noundef %0, i32 noundef %.045, i32 noundef %9)
  %11 = sub i32 %4, %10
  %12 = tail call i32 @tvb_find_uint8(ptr noundef %0, i32 noundef %10, i32 noundef %11, i8 noundef zeroext 59)
  %13 = icmp eq i32 %12, -1
  %spec.select = select i1 %13, i32 %4, i32 %12
  %14 = sub i32 %spec.select, %10
  %15 = add i32 %10, 1
  %16 = tail call i32 @tvb_find_uint8(ptr noundef %0, i32 noundef %15, i32 noundef %14, i8 noundef zeroext 61)
  %.not = icmp eq i32 %16, -1
  br i1 %.not, label %32, label %17

17:                                               ; preds = %8
  %18 = load ptr, ptr %7, align 8
  %19 = sub i32 %16, %10
  %20 = tail call ptr @tvb_get_string_enc(ptr noundef %18, ptr noundef %0, i32 noundef %10, i32 noundef %19, i32 noundef 2)
  %.not44 = icmp eq ptr %20, null
  br i1 %.not44, label %30, label %21

21:                                               ; preds = %17
  %22 = tail call i32 @g_ascii_strcasecmp(ptr noundef nonnull %20, ptr noundef nonnull @.str.1025)
  %23 = icmp eq i32 %22, 0
  br i1 %23, label %24, label %30

24:                                               ; preds = %21
  %25 = load i32, ptr @hf_sip_service_priority, align 4
  %26 = add nuw i32 %16, 1
  %27 = xor i32 %16, -1
  %28 = add i32 %spec.select, %27
  %29 = tail call ptr @proto_tree_add_item(ptr noundef %1, i32 noundef %25, ptr noundef %0, i32 noundef %26, i32 noundef %28, i32 noundef 2)
  br label %34

30:                                               ; preds = %21, %17
  %31 = tail call ptr @proto_tree_add_format_text(ptr noundef %1, ptr noundef %0, i32 noundef %10, i32 noundef %14)
  br label %34

32:                                               ; preds = %8
  %33 = tail call ptr @proto_tree_add_format_text(ptr noundef %1, ptr noundef %0, i32 noundef %10, i32 noundef %14)
  br label %34

34:                                               ; preds = %24, %30, %32
  %35 = add i32 %spec.select, 1
  %36 = icmp slt i32 %35, %4
  br i1 %36, label %8, label %._crit_edge, !llvm.loop !47

._crit_edge:                                      ; preds = %34, %5
  ret void
}